target datalayout = "e-m:e-p270:32:32-p271:32:32-p272:64:64-i64:64-i128:128-f80:128-n8:16:32:64-S128"
target triple = "x86_64-pc-linux-gnu"

%struct.AVCodecContext = type { ptr, i32, i32, ptr, i32, i32, ptr, ptr, ptr, i64, i32, i32, ptr, i32, %struct.AVRational, %struct.AVRational, %struct.AVRational, i32, i32, i32, i32, i32, %struct.AVRational, i32, i32, i32, i32, i32, i32, i32, i32, i32, i32, i32, ptr, ptr, i32, float, float, float, float, float, float, float, float, float, i32, i32, i32, i32, i32, i32, i32, i32, i32, i32, i32, i32, ptr, ptr, ptr, i32, i32, i32, i32, i32, i32, i32, i32, i32, i32, %struct.AVChannelLayout, i32, i32, i32, i32, i32, i32, i32, i32, ptr, i32, i32, i32, float, float, i32, i32, i32, i32, i32, ptr, i64, i64, float, float, i32, i32, ptr, ptr, i32, i32, i32, i32, i32, ptr, ptr, ptr, ptr, i32, i32, [8 x i64], i32, i32, i32, i32, i32, i32, i32, ptr, ptr, i32, i32, i32, i32, i32, i32, i32, i32, i32, i32, ptr, ptr, i32, i32, ptr, ptr, ptr, ptr, i32, i32, i64, i32, i32, i64, ptr, i64, ptr, i32, ptr, i32 }
%struct.AVRational = type { i32, i32 }
%struct.AVChannelLayout = type { i32, i32, %union.anon.0, ptr }
%union.anon.0 = type { i64 }
%struct.Msvideo1Context = type { ptr, ptr, ptr, i32, i32, [256 x i32] }

; Function Attrs: cold nounwind optsize uwtable
define internal i32 @msvideo1_decode_init(ptr noundef %0) #0 {
  %2 = alloca i32, align 4
  %3 = alloca ptr, align 8
  %4 = alloca ptr, align 8
  %5 = alloca i32, align 4
  store ptr %0, ptr %3, align 8, !tbaa !4
  call void @llvm.lifetime.start.p0(i64 8, ptr %4) #5
  %6 = load ptr, ptr %3, align 8, !tbaa !4
  %7 = getelementptr inbounds nuw %struct.AVCodecContext, ptr %6, i32 0, i32 6
  %8 = load ptr, ptr %7, align 8, !tbaa !9
  store ptr %8, ptr %4, align 8, !tbaa !29
  %9 = load ptr, ptr %3, align 8, !tbaa !4
  %10 = load ptr, ptr %4, align 8, !tbaa !29
  %11 = getelementptr inbounds nuw %struct.Msvideo1Context, ptr %10, i32 0, i32 0
  store ptr %9, ptr %11, align 8, !tbaa !31
  %12 = load ptr, ptr %3, align 8, !tbaa !4
  %13 = getelementptr inbounds nuw %struct.AVCodecContext, ptr %12, i32 0, i32 18
  %14 = load i32, ptr %13, align 8, !tbaa !34
  %15 = icmp slt i32 %14, 4
  br i1 %15, label %21, label %16

16:                                               ; preds = %1
  %17 = load ptr, ptr %3, align 8, !tbaa !4
  %18 = getelementptr inbounds nuw %struct.AVCodecContext, ptr %17, i32 0, i32 19
  %19 = load i32, ptr %18, align 4, !tbaa !35
  %20 = icmp slt i32 %19, 4
  br i1 %20, label %21, label %22

21:                                               ; preds = %16, %1
  store i32 -1094995529, ptr %2, align 4
  store i32 1, ptr %5, align 4
  br label %61

22:                                               ; preds = %16
  %23 = load ptr, ptr %4, align 8, !tbaa !29
  %24 = getelementptr inbounds nuw %struct.Msvideo1Context, ptr %23, i32 0, i32 0
  %25 = load ptr, ptr %24, align 8, !tbaa !31
  %26 = getelementptr inbounds nuw %struct.AVCodecContext, ptr %25, i32 0, i32 114
  %27 = load i32, ptr %26, align 8, !tbaa !36
  %28 = icmp eq i32 %27, 8
  br i1 %28, label %29, label %46

29:                                               ; preds = %22
  %30 = load ptr, ptr %4, align 8, !tbaa !29
  %31 = getelementptr inbounds nuw %struct.Msvideo1Context, ptr %30, i32 0, i32 4
  store i32 1, ptr %31, align 4, !tbaa !37
  %32 = load ptr, ptr %3, align 8, !tbaa !4
  %33 = getelementptr inbounds nuw %struct.AVCodecContext, ptr %32, i32 0, i32 23
  store i32 11, ptr %33, align 8, !tbaa !38
  %34 = load ptr, ptr %3, align 8, !tbaa !4
  %35 = getelementptr inbounds nuw %struct.AVCodecContext, ptr %34, i32 0, i32 13
  %36 = load i32, ptr %35, align 8, !tbaa !39
  %37 = icmp sge i32 %36, 1024
  br i1 %37, label %38, label %45

38:                                               ; preds = %29
  %39 = load ptr, ptr %4, align 8, !tbaa !29
  %40 = getelementptr inbounds nuw %struct.Msvideo1Context, ptr %39, i32 0, i32 5
  %41 = getelementptr inbounds [256 x i32], ptr %40, i64 0, i64 0
  %42 = load ptr, ptr %3, align 8, !tbaa !4
  %43 = getelementptr inbounds nuw %struct.AVCodecContext, ptr %42, i32 0, i32 12
  %44 = load ptr, ptr %43, align 8, !tbaa !40
  call void @llvm.memcpy.p0.p0.i64(ptr align 8 %41, ptr align 1 %44, i64 1024, i1 false)
  br label %45

45:                                               ; preds = %38, %29
  br label %51

46:                                               ; preds = %22
  %47 = load ptr, ptr %4, align 8, !tbaa !29
  %48 = getelementptr inbounds nuw %struct.Msvideo1Context, ptr %47, i32 0, i32 4
  store i32 0, ptr %48, align 4, !tbaa !37
  %49 = load ptr, ptr %3, align 8, !tbaa !4
  %50 = getelementptr inbounds nuw %struct.AVCodecContext, ptr %49, i32 0, i32 23
  store i32 39, ptr %50, align 8, !tbaa !38
  br label %51

51:                                               ; preds = %46, %45
  %52 = call ptr @av_frame_alloc()
  %53 = load ptr, ptr %4, align 8, !tbaa !29
  %54 = getelementptr inbounds nuw %struct.Msvideo1Context, ptr %53, i32 0, i32 1
  store ptr %52, ptr %54, align 8, !tbaa !41
  %55 = load ptr, ptr %4, align 8, !tbaa !29
  %56 = getelementptr inbounds nuw %struct.Msvideo1Context, ptr %55, i32 0, i32 1
  %57 = load ptr, ptr %56, align 8, !tbaa !41
  %58 = icmp ne ptr %57, null
  br i1 %58, label %60, label %59

59:                                               ; preds = %51
  store i32 -12, ptr %2, align 4
  store i32 1, ptr %5, align 4
  br label %61

60:                                               ; preds = %51
  store i32 0, ptr %2, align 4
  store i32 1, ptr %5, align 4
  br label %61

61:                                               ; preds = %60, %59, %21
  call void @llvm.lifetime.end.p0(i64 8, ptr %4) #5
  %62 = load i32, ptr %2, align 4
  ret i32 %62
}