; Function Attrs: cold nounwind optsize uwtable
define internal range(i32 -1094995529, 1) i32 @msvideo1_decode_init(ptr noundef %0) #0 {
  %2 = getelementptr inbounds nuw i8, ptr %0, i64 32
  %3 = load ptr, ptr %2, align 8, !tbaa !4
  store ptr %0, ptr %3, align 8, !tbaa !27
  %4 = getelementptr inbounds nuw i8, ptr %0, i64 112
  %5 = load i32, ptr %4, align 8, !tbaa !31
  %6 = icmp slt i32 %5, 4
  br i1 %6, label %29, label %7

7:                                                ; preds = %1
  %8 = getelementptr inbounds nuw i8, ptr %0, i64 116
  %9 = load i32, ptr %8, align 4, !tbaa !32
  %10 = icmp slt i32 %9, 4
  br i1 %10, label %29, label %11

11:                                               ; preds = %7
  %12 = getelementptr inbounds nuw i8, ptr %0, i64 648
  %13 = load i32, ptr %12, align 8, !tbaa !33
  %14 = icmp eq i32 %13, 8
  %15 = getelementptr inbounds nuw i8, ptr %3, i64 28
  %16 = getelementptr inbounds nuw i8, ptr %0, i64 136
  br i1 %14, label %17, label %25

17:                                               ; preds = %11
  store i32 1, ptr %15, align 4, !tbaa !34
  store i32 11, ptr %16, align 8, !tbaa !35
  %18 = getelementptr inbounds nuw i8, ptr %0, i64 80
  %19 = load i32, ptr %18, align 8, !tbaa !36
  %20 = icmp sgt i32 %19, 1023
  br i1 %20, label %21, label %26

21:                                               ; preds = %17
  %22 = getelementptr inbounds nuw i8, ptr %3, i64 32
  %23 = getelementptr inbounds nuw i8, ptr %0, i64 72
  %24 = load ptr, ptr %23, align 8, !tbaa !37
  tail call void @llvm.memcpy.p0.p0.i64(ptr noundef nonnull align 8 dereferenceable(1024) %22, ptr noundef nonnull align 1 dereferenceable(1024) %24, i64 1024, i1 false)
  br label %26

25:                                               ; preds = %11
  store i32 0, ptr %15, align 4, !tbaa !34
  store i32 39, ptr %16, align 8, !tbaa !35
  br label %26

26:                                               ; preds = %17, %21, %25
  %27 = tail call ptr @av_frame_alloc() #6
  %28 = getelementptr inbounds nuw i8, ptr %3, i64 8
  store ptr %27, ptr %28, align 8, !tbaa !38
  %.not = icmp eq ptr %27, null
  %. = select i1 %.not, i32 -12, i32 0
  br label %29

29:                                               ; preds = %26, %1, %7
  %.0 = phi i32 [ -1094995529, %7 ], [ -1094995529, %1 ], [ %., %26 ]
  ret i32 %.0
}